; ModuleID = 'source-C-CXX/7/672.cpp'
source_filename = "source-C-CXX/7/672.cpp"
target datalayout = "e-m:e-p270:32:32-p271:32:32-p272:64:64-i64:64-f80:128-n8:16:32:64-S128"
target triple = "x86_64-pc-linux-gnu"

%"class.std::ios_base::Init" = type { i8 }
%"class.std::basic_istream" = type { i32 (...)**, i64, %"class.std::basic_ios" }
%"class.std::basic_ios" = type { %"class.std::ios_base", %"class.std::basic_ostream"*, i8, i8, %"class.std::basic_streambuf"*, %"class.std::ctype"*, %"class.std::num_put"*, %"class.std::num_get"* }
%"class.std::ios_base" = type { i32 (...)**, i64, i64, i32, i32, i32, %"struct.std::ios_base::_Callback_list"*, %"struct.std::ios_base::_Words", [8 x %"struct.std::ios_base::_Words"], i32, %"struct.std::ios_base::_Words"*, %"class.std::locale" }
%"struct.std::ios_base::_Callback_list" = type { %"struct.std::ios_base::_Callback_list"*, void (i32, %"class.std::ios_base"*, i32)*, i32, i32 }
%"struct.std::ios_base::_Words" = type { i8*, i64 }
%"class.std::locale" = type { %"class.std::locale::_Impl"* }
%"class.std::locale::_Impl" = type { i32, %"class.std::locale::facet"**, i64, %"class.std::locale::facet"**, i8** }
%"class.std::locale::facet" = type <{ i32 (...)**, i32, [4 x i8] }>
%"class.std::basic_ostream" = type { i32 (...)**, %"class.std::basic_ios" }
%"class.std::basic_streambuf" = type { i32 (...)**, i8*, i8*, i8*, i8*, i8*, i8*, %"class.std::locale" }
%"class.std::ctype" = type <{ %"class.std::locale::facet.base", [4 x i8], %struct.__locale_struct*, i8, [7 x i8], i32*, i32*, i16*, i8, [256 x i8], [256 x i8], i8, [6 x i8] }>
%"class.std::locale::facet.base" = type <{ i32 (...)**, i32 }>
%struct.__locale_struct = type { [13 x %struct.__locale_data*], i16*, i32*, i32*, [13 x i8*] }
%struct.__locale_data = type opaque
%"class.std::num_put" = type { %"class.std::locale::facet.base", [4 x i8] }
%"class.std::num_get" = type { %"class.std::locale::facet.base", [4 x i8] }

@_ZStL8__ioinit = internal global %"class.std::ios_base::Init" zeroinitializer, align 1
@__dso_handle = external hidden global i8
@_ZSt3cin = external global %"class.std::basic_istream", align 8
@_ZSt4cout = external global %"class.std::basic_ostream", align 8
@.str = private unnamed_addr constant [2 x i8] c" \00", align 1
@llvm.global_ctors = appending global [1 x { i32, void ()*, i8* }] [{ i32, void ()*, i8* } { i32 65535, void ()* @_GLOBAL__sub_I_672.cpp, i8* null }]

declare void @_ZNSt8ios_base4InitC1Ev(%"class.std::ios_base::Init"* nonnull align 1 dereferenceable(1)) unnamed_addr #0

; Function Attrs: nounwind
declare void @_ZNSt8ios_base4InitD1Ev(%"class.std::ios_base::Init"* nonnull align 1 dereferenceable(1)) unnamed_addr #1

; Function Attrs: nofree nounwind
declare i32 @__cxa_atexit(void (i8*)*, i8*, i8*) local_unnamed_addr #2

; Function Attrs: mustprogress norecurse sspstrong uwtable
define dso_local i32 @main() local_unnamed_addr #3 {
  %1 = alloca i32, align 4
  %2 = alloca i32, align 4
  %3 = bitcast i32* %1 to i8*
  call void @llvm.lifetime.start.p0i8(i64 4, i8* nonnull %3) #7
  %4 = bitcast i32* %2 to i8*
  call void @llvm.lifetime.start.p0i8(i64 4, i8* nonnull %4) #7
  %5 = call nonnull align 8 dereferenceable(16) %"class.std::basic_istream"* @_ZNSirsERi(%"class.std::basic_istream"* nonnull align 8 dereferenceable(16) @_ZSt3cin, i32* nonnull align 4 dereferenceable(4) %1)
  %6 = call nonnull align 8 dereferenceable(16) %"class.std::basic_istream"* @_ZNSirsERi(%"class.std::basic_istream"* nonnull align 8 dereferenceable(16) %5, i32* nonnull align 4 dereferenceable(4) %2)
  %7 = load i32, i32* %1, align 4, !tbaa !5
  %8 = call i32 @_Z5orderi(i32 %7)
  %9 = call nonnull align 8 dereferenceable(8) %"class.std::basic_ostream"* @_ZSt16__ostream_insertIcSt11char_traitsIcEERSt13basic_ostreamIT_T0_ES6_PKS3_l(%"class.std::basic_ostream"* nonnull align 8 dereferenceable(8) @_ZSt4cout, i8* nonnull getelementptr inbounds ([2 x i8], [2 x i8]* @.str, i64 0, i64 0), i64 1)
  %10 = load i32, i32* %2, align 4, !tbaa !5
  %11 = call i32 @_Z5orderi(i32 %10)
  call void @llvm.lifetime.end.p0i8(i64 4, i8* nonnull %4) #7
  call void @llvm.lifetime.end.p0i8(i64 4, i8* nonnull %3) #7
  ret i32 0
}

; Function Attrs: argmemonly mustprogress nofree nosync nounwind willreturn
declare void @llvm.lifetime.start.p0i8(i64 immarg, i8* nocapture) #4

declare nonnull align 8 dereferenceable(16) %"class.std::basic_istream"* @_ZNSirsERi(%"class.std::basic_istream"* nonnull align 8 dereferenceable(16), i32* nonnull align 4 dereferenceable(4)) local_unnamed_addr #0

; Function Attrs: mustprogress sspstrong uwtable
define dso_local i32 @_Z5orderi(i32 %0) local_unnamed_addr #5 {
  %2 = alloca [1000 x i32], align 16
  %3 = bitcast [1000 x i32]* %2 to i8*
  call void @llvm.lifetime.start.p0i8(i64 4000, i8* nonnull %3) #7
  %4 = icmp slt i32 %0, 1
  br i1 %4, label %73, label %5

5:                                                ; preds = %1
  %6 = add nuw i32 %0, 1
  %7 = zext i32 %6 to i64
  br label %12

8:                                                ; preds = %12
  %9 = icmp sgt i32 %0, 1
  br i1 %9, label %10, label %73

10:                                               ; preds = %8
  %11 = getelementptr inbounds [1000 x i32], [1000 x i32]* %2, i64 0, i64 1
  br label %18

12:                                               ; preds = %5, %12
  %13 = phi i64 [ 1, %5 ], [ %16, %12 ]
  %14 = getelementptr inbounds [1000 x i32], [1000 x i32]* %2, i64 0, i64 %13
  %15 = call nonnull align 8 dereferenceable(16) %"class.std::basic_istream"* @_ZNSirsERi(%"class.std::basic_istream"* nonnull align 8 dereferenceable(16) @_ZSt3cin, i32* nonnull align 4 dereferenceable(4) %14)
  %16 = add nuw nsw i64 %13, 1
  %17 = icmp eq i64 %16, %7
  br i1 %17, label %8, label %12, !llvm.loop !9

18:                                               ; preds = %10, %61
  %19 = phi i32 [ 0, %10 ], [ %64, %61 ]
  %20 = phi i32 [ 1, %10 ], [ %62, %61 ]
  %21 = sub i32 %0, %19
  %22 = zext i32 %21 to i64
  %23 = add nsw i64 %22, -1
  %24 = icmp slt i32 %20, %0
  br i1 %24, label %25, label %61

25:                                               ; preds = %18
  %26 = load i32, i32* %11, align 4, !tbaa !5
  %27 = and i64 %23, 1
  %28 = icmp eq i32 %21, 2
  br i1 %28, label %50, label %29

29:                                               ; preds = %25
  %30 = and i64 %23, -2
  br label %34

31:                                               ; preds = %61
  br i1 %9, label %32, label %73

32:                                               ; preds = %31
  %33 = zext i32 %0 to i64
  br label %65

34:                                               ; preds = %80, %29
  %35 = phi i32 [ %26, %29 ], [ %81, %80 ]
  %36 = phi i64 [ 1, %29 ], [ %46, %80 ]
  %37 = phi i64 [ %30, %29 ], [ %82, %80 ]
  %38 = add nuw nsw i64 %36, 1
  %39 = getelementptr inbounds [1000 x i32], [1000 x i32]* %2, i64 0, i64 %38
  %40 = load i32, i32* %39, align 4, !tbaa !5
  %41 = icmp sgt i32 %35, %40
  br i1 %41, label %42, label %44

42:                                               ; preds = %34
  %43 = getelementptr inbounds [1000 x i32], [1000 x i32]* %2, i64 0, i64 %36
  store i32 %40, i32* %43, align 4, !tbaa !5
  store i32 %35, i32* %39, align 4, !tbaa !5
  br label %44

44:                                               ; preds = %34, %42
  %45 = phi i32 [ %40, %34 ], [ %35, %42 ]
  %46 = add nuw nsw i64 %36, 2
  %47 = getelementptr inbounds [1000 x i32], [1000 x i32]* %2, i64 0, i64 %46
  %48 = load i32, i32* %47, align 4, !tbaa !5
  %49 = icmp sgt i32 %45, %48
  br i1 %49, label %78, label %80

50:                                               ; preds = %80, %25
  %51 = phi i32 [ %26, %25 ], [ %81, %80 ]
  %52 = phi i64 [ 1, %25 ], [ %46, %80 ]
  %53 = icmp eq i64 %27, 0
  br i1 %53, label %61, label %54

54:                                               ; preds = %50
  %55 = add nuw nsw i64 %52, 1
  %56 = getelementptr inbounds [1000 x i32], [1000 x i32]* %2, i64 0, i64 %55
  %57 = load i32, i32* %56, align 4, !tbaa !5
  %58 = icmp sgt i32 %51, %57
  br i1 %58, label %59, label %61

59:                                               ; preds = %54
  %60 = getelementptr inbounds [1000 x i32], [1000 x i32]* %2, i64 0, i64 %52
  store i32 %57, i32* %60, align 4, !tbaa !5
  store i32 %51, i32* %56, align 4, !tbaa !5
  br label %61

61:                                               ; preds = %50, %54, %59, %18
  %62 = add nuw nsw i32 %20, 1
  %63 = icmp eq i32 %62, %0
  %64 = add i32 %19, 1
  br i1 %63, label %31, label %18, !llvm.loop !11

65:                                               ; preds = %32, %65
  %66 = phi i64 [ 1, %32 ], [ %71, %65 ]
  %67 = getelementptr inbounds [1000 x i32], [1000 x i32]* %2, i64 0, i64 %66
  %68 = load i32, i32* %67, align 4, !tbaa !5
  %69 = call nonnull align 8 dereferenceable(8) %"class.std::basic_ostream"* @_ZNSolsEi(%"class.std::basic_ostream"* nonnull align 8 dereferenceable(8) @_ZSt4cout, i32 %68)
  %70 = call nonnull align 8 dereferenceable(8) %"class.std::basic_ostream"* @_ZSt16__ostream_insertIcSt11char_traitsIcEERSt13basic_ostreamIT_T0_ES6_PKS3_l(%"class.std::basic_ostream"* nonnull align 8 dereferenceable(8) %69, i8* nonnull getelementptr inbounds ([2 x i8], [2 x i8]* @.str, i64 0, i64 0), i64 1)
  %71 = add nuw nsw i64 %66, 1
  %72 = icmp eq i64 %71, %33
  br i1 %72, label %73, label %65, !llvm.loop !12

73:                                               ; preds = %65, %8, %1, %31
  %74 = sext i32 %0 to i64
  %75 = getelementptr inbounds [1000 x i32], [1000 x i32]* %2, i64 0, i64 %74
  %76 = load i32, i32* %75, align 4, !tbaa !5
  %77 = call nonnull align 8 dereferenceable(8) %"class.std::basic_ostream"* @_ZNSolsEi(%"class.std::basic_ostream"* nonnull align 8 dereferenceable(8) @_ZSt4cout, i32 %76)
  call void @llvm.lifetime.end.p0i8(i64 4000, i8* nonnull %3) #7
  ret i32 0

78:                                               ; preds = %44
  %79 = getelementptr inbounds [1000 x i32], [1000 x i32]* %2, i64 0, i64 %38
  store i32 %48, i32* %79, align 4, !tbaa !5
  store i32 %45, i32* %47, align 4, !tbaa !5
  br label %80

80:                                               ; preds = %78, %44
  %81 = phi i32 [ %48, %44 ], [ %45, %78 ]
  %82 = add i64 %37, -2
  %83 = icmp eq i64 %82, 0
  br i1 %83, label %50, label %34, !llvm.loop !13
}

; Function Attrs: argmemonly mustprogress nofree nosync nounwind willreturn
declare void @llvm.lifetime.end.p0i8(i64 immarg, i8* nocapture) #4

declare nonnull align 8 dereferenceable(8) %"class.std::basic_ostream"* @_ZNSolsEi(%"class.std::basic_ostream"* nonnull align 8 dereferenceable(8), i32) local_unnamed_addr #0

declare nonnull align 8 dereferenceable(8) %"class.std::basic_ostream"* @_ZSt16__ostream_insertIcSt11char_traitsIcEERSt13basic_ostreamIT_T0_ES6_PKS3_l(%"class.std::basic_ostream"* nonnull align 8 dereferenceable(8), i8*, i64) local_unnamed_addr #0

; Function Attrs: sspstrong uwtable
define internal void @_GLOBAL__sub_I_672.cpp() #6 section ".text.startup" {
  tail call void @_ZNSt8ios_base4InitC1Ev(%"class.std::ios_base::Init"* nonnull align 1 dereferenceable(1) @_ZStL8__ioinit)
  %1 = tail call i32 @__cxa_atexit(void (i8*)* bitcast (void (%"class.std::ios_base::Init"*)* @_ZNSt8ios_base4InitD1Ev to void (i8*)*), i8* getelementptr inbounds (%"class.std::ios_base::Init", %"class.std::ios_base::Init"* @_ZStL8__ioinit, i64 0, i32 0), i8* nonnull @__dso_handle) #7
  ret void
}


!llvm.module.flags = !{!0, !1, !2, !3}
!llvm.ident = !{!4}

!0 = !{i32 1, !"wchar_size", i32 4}
!1 = !{i32 7, !"PIC Level", i32 2}
!2 = !{i32 7, !"PIE Level", i32 2}
!3 = !{i32 7, !"uwtable", i32 1}
!4 = !{!"clang version 13.0.0"}
!5 = !{!6, !6, i64 0}
!6 = !{!"int", !7, i64 0}
!7 = !{!"omnipotent char", !8, i64 0}
!8 = !{!"Simple C++ TBAA"}
!9 = distinct !{!9, !10}
!10 = !{!"llvm.loop.mustprogress"}
!11 = distinct !{!11, !10}
!12 = distinct !{!12, !10}
!13 = distinct !{!13, !10}
